; Function Attrs: nounwind uwtable
define void @ff_mpeg4_encode_video_packet_header(ptr noundef captures(none) %0) local_unnamed_addr #0 {
  %2 = getelementptr inbounds nuw i8, ptr %0, i64 564
  %3 = load i32, ptr %2, align 4, !tbaa !46
  %4 = add nsw i32 %3, -1
  %.not.i = icmp ult i32 %4, 65536
  %5 = lshr i32 %4, 16
  %spec.select.i = select i1 %.not.i, i32 %4, i32 %5
  %spec.select12.i = select i1 %.not.i, i32 0, i32 16
  %.not11.i = icmp samesign ult i32 %spec.select.i, 256
  %6 = lshr i32 %spec.select.i, 8
  %7 = or disjoint i32 %spec.select12.i, 8
  %.110.i = select i1 %.not11.i, i32 %spec.select.i, i32 %6
  %.1.i = select i1 %.not11.i, i32 %spec.select12.i, i32 %7
  %8 = zext nneg i32 %.110.i to i64
  %9 = getelementptr inbounds nuw [256 x i8], ptr @ff_log2_tab, i64 0, i64 %8
  %10 = load i8, ptr %9, align 1, !tbaa !49
  %11 = zext i8 %10 to i32
  %12 = add nuw nsw i32 %11, 1
  %13 = add nuw nsw i32 %12, %.1.i
  %14 = getelementptr inbounds nuw i8, ptr %0, i64 4808
  %15 = getelementptr inbounds nuw i8, ptr %0, i64 1480
  %16 = load i32, ptr %15, align 8, !tbaa !45
  %17 = getelementptr inbounds nuw i8, ptr %0, i64 6304
  %18 = load i32, ptr %17, align 8, !tbaa !89
  %19 = getelementptr inbounds nuw i8, ptr %0, i64 6308
  %20 = load i32, ptr %19, align 4, !tbaa !90
  %21 = tail call i32 @ff_mpeg4_get_video_packet_prefix_length(i32 noundef %16, i32 noundef %18, i32 noundef %20) #13
  %22 = load i32, ptr %14, align 8, !tbaa !58
  %23 = getelementptr inbounds nuw i8, ptr %0, i64 4812
  %24 = load i32, ptr %23, align 4, !tbaa !57
  %25 = icmp slt i32 %21, %24
  br i1 %25, label %26, label %29

26:                                               ; preds = %1
  %27 = shl i32 %22, %21
  %28 = sub nsw i32 %24, %21
  br label %put_bits.exit

29:                                               ; preds = %1
  %30 = getelementptr inbounds nuw i8, ptr %0, i64 4832
  %31 = load ptr, ptr %30, align 8, !tbaa !59
  %32 = getelementptr inbounds nuw i8, ptr %0, i64 4824
  %33 = load ptr, ptr %32, align 8, !tbaa !56
  %34 = ptrtoint ptr %31 to i64
  %35 = ptrtoint ptr %33 to i64
  %36 = sub i64 %34, %35
  %37 = icmp ugt i64 %36, 3
  br i1 %37, label %38, label %43

38:                                               ; preds = %29
  %39 = shl i32 %22, %24
  %40 = tail call i32 @llvm.bswap.i32(i32 %39)
  store i32 %40, ptr %33, align 1, !tbaa !49
  %41 = load ptr, ptr %32, align 8, !tbaa !56
  %42 = getelementptr inbounds nuw i8, ptr %41, i64 4
  store ptr %42, ptr %32, align 8, !tbaa !56
  br label %44

43:                                               ; preds = %29
  tail call void (ptr, i32, ptr, ...) @av_log(ptr noundef null, i32 noundef 16, ptr noundef nonnull @.str.2) #13
  br label %44

44:                                               ; preds = %43, %38
  %reass.sub = sub i32 %24, %21
  %45 = add i32 %reass.sub, 32
  br label %put_bits.exit

put_bits.exit:                                    ; preds = %26, %44
  %.026.i.i = phi i32 [ %27, %26 ], [ 0, %44 ]
  %.0.i.i = phi i32 [ %28, %26 ], [ %45, %44 ]
  store i32 %.026.i.i, ptr %14, align 8, !tbaa !58
  store i32 %.0.i.i, ptr %23, align 4, !tbaa !57
  %46 = icmp sgt i32 %.0.i.i, 1
  br i1 %46, label %47, label %50

47:                                               ; preds = %put_bits.exit
  %48 = shl i32 %.026.i.i, 1
  %49 = or disjoint i32 %48, 1
  br label %put_bits.exit16

50:                                               ; preds = %put_bits.exit
  %51 = getelementptr inbounds nuw i8, ptr %0, i64 4832
  %52 = load ptr, ptr %51, align 8, !tbaa !59
  %53 = getelementptr inbounds nuw i8, ptr %0, i64 4824
  %54 = load ptr, ptr %53, align 8, !tbaa !56
  %55 = ptrtoint ptr %52 to i64
  %56 = ptrtoint ptr %54 to i64
  %57 = sub i64 %55, %56
  %58 = icmp ugt i64 %57, 3
  br i1 %58, label %59, label %67

59:                                               ; preds = %50
  %60 = shl i32 %.026.i.i, %.0.i.i
  %61 = sub nsw i32 1, %.0.i.i
  %62 = lshr i32 1, %61
  %63 = or i32 %62, %60
  %64 = tail call i32 @llvm.bswap.i32(i32 %63)
  store i32 %64, ptr %54, align 1, !tbaa !49
  %65 = load ptr, ptr %53, align 8, !tbaa !56
  %66 = getelementptr inbounds nuw i8, ptr %65, i64 4
  store ptr %66, ptr %53, align 8, !tbaa !56
  br label %put_bits.exit16

67:                                               ; preds = %50
  tail call void (ptr, i32, ptr, ...) @av_log(ptr noundef null, i32 noundef 16, ptr noundef nonnull @.str.2) #13
  br label %put_bits.exit16

put_bits.exit16:                                  ; preds = %59, %67, %47
  %.sink = phi i32 [ -1, %47 ], [ 31, %67 ], [ 31, %59 ]
  %.026.i.i14 = phi i32 [ %49, %47 ], [ 1, %67 ], [ 1, %59 ]
  %68 = add nsw i32 %.0.i.i, %.sink
  store i32 %.026.i.i14, ptr %14, align 8, !tbaa !58
  store i32 %68, ptr %23, align 4, !tbaa !57
  %69 = getelementptr inbounds nuw i8, ptr %0, i64 3348
  %70 = load i32, ptr %69, align 4, !tbaa !91
  %71 = getelementptr inbounds nuw i8, ptr %0, i64 3352
  %72 = load i32, ptr %71, align 8, !tbaa !92
  %73 = getelementptr inbounds nuw i8, ptr %0, i64 540
  %74 = load i32, ptr %73, align 4, !tbaa !93
  %75 = mul nsw i32 %74, %72
  %76 = add nsw i32 %75, %70
  %77 = icmp slt i32 %13, %68
  br i1 %77, label %78, label %82

78:                                               ; preds = %put_bits.exit16
  %79 = shl i32 %.026.i.i14, %13
  %80 = or i32 %76, %79
  %81 = sub nsw i32 %68, %13
  br label %put_bits.exit20

82:                                               ; preds = %put_bits.exit16
  %83 = getelementptr inbounds nuw i8, ptr %0, i64 4832
  %84 = load ptr, ptr %83, align 8, !tbaa !59
  %85 = getelementptr inbounds nuw i8, ptr %0, i64 4824
  %86 = load ptr, ptr %85, align 8, !tbaa !56
  %87 = ptrtoint ptr %84 to i64
  %88 = ptrtoint ptr %86 to i64
  %89 = sub i64 %87, %88
  %90 = icmp ugt i64 %89, 3
  br i1 %90, label %91, label %99

91:                                               ; preds = %82
  %92 = shl i32 %.026.i.i14, %68
  %93 = sub nsw i32 %13, %68
  %94 = lshr i32 %76, %93
  %95 = or i32 %94, %92
  %96 = tail call i32 @llvm.bswap.i32(i32 %95)
  store i32 %96, ptr %86, align 1, !tbaa !49
  %97 = load ptr, ptr %85, align 8, !tbaa !56
  %98 = getelementptr inbounds nuw i8, ptr %97, i64 4
  store ptr %98, ptr %85, align 8, !tbaa !56
  br label %100

99:                                               ; preds = %82
  tail call void (ptr, i32, ptr, ...) @av_log(ptr noundef null, i32 noundef 16, ptr noundef nonnull @.str.2) #13
  br label %100

100:                                              ; preds = %99, %91
  %reass.sub30 = sub i32 %68, %13
  %101 = add i32 %reass.sub30, 32
  br label %put_bits.exit20

put_bits.exit20:                                  ; preds = %78, %100
  %.026.i.i18 = phi i32 [ %80, %78 ], [ %76, %100 ]
  %.0.i.i19 = phi i32 [ %81, %78 ], [ %101, %100 ]
  store i32 %.026.i.i18, ptr %14, align 8, !tbaa !58
  store i32 %.0.i.i19, ptr %23, align 4, !tbaa !57
  %102 = getelementptr inbounds nuw i8, ptr %0, i64 1472
  %103 = load i32, ptr %102, align 8, !tbaa !94
  %104 = icmp sgt i32 %.0.i.i19, 5
  br i1 %104, label %105, label %108

105:                                              ; preds = %put_bits.exit20
  %106 = shl i32 %.026.i.i18, 5
  %107 = or i32 %103, %106
  br label %put_bits.exit24

108:                                              ; preds = %put_bits.exit20
  %109 = getelementptr inbounds nuw i8, ptr %0, i64 4832
  %110 = load ptr, ptr %109, align 8, !tbaa !59
  %111 = getelementptr inbounds nuw i8, ptr %0, i64 4824
  %112 = load ptr, ptr %111, align 8, !tbaa !56
  %113 = ptrtoint ptr %110 to i64
  %114 = ptrtoint ptr %112 to i64
  %115 = sub i64 %113, %114
  %116 = icmp ugt i64 %115, 3
  br i1 %116, label %117, label %125

117:                                              ; preds = %108
  %118 = shl i32 %.026.i.i18, %.0.i.i19
  %119 = sub nsw i32 5, %.0.i.i19
  %120 = lshr i32 %103, %119
  %121 = or i32 %120, %118
  %122 = tail call i32 @llvm.bswap.i32(i32 %121)
  store i32 %122, ptr %112, align 1, !tbaa !49
  %123 = load ptr, ptr %111, align 8, !tbaa !56
  %124 = getelementptr inbounds nuw i8, ptr %123, i64 4
  store ptr %124, ptr %111, align 8, !tbaa !56
  br label %put_bits.exit24

125:                                              ; preds = %108
  tail call void (ptr, i32, ptr, ...) @av_log(ptr noundef null, i32 noundef 16, ptr noundef nonnull @.str.2) #13
  br label %put_bits.exit24

put_bits.exit24:                                  ; preds = %117, %125, %105
  %.sink31 = phi i32 [ -5, %105 ], [ 27, %125 ], [ 27, %117 ]
  %.026.i.i22 = phi i32 [ %107, %105 ], [ %103, %125 ], [ %103, %117 ]
  %126 = add nsw i32 %.0.i.i19, %.sink31
  store i32 %.026.i.i22, ptr %14, align 8, !tbaa !58
  store i32 %126, ptr %23, align 4, !tbaa !57
  %127 = icmp sgt i32 %126, 1
  br i1 %127, label %128, label %130

128:                                              ; preds = %put_bits.exit24
  %129 = shl i32 %.026.i.i22, 1
  br label %put_bits.exit28

130:                                              ; preds = %put_bits.exit24
  %131 = getelementptr inbounds nuw i8, ptr %0, i64 4832
  %132 = load ptr, ptr %131, align 8, !tbaa !59
  %133 = getelementptr inbounds nuw i8, ptr %0, i64 4824
  %134 = load ptr, ptr %133, align 8, !tbaa !56
  %135 = ptrtoint ptr %132 to i64
  %136 = ptrtoint ptr %134 to i64
  %137 = sub i64 %135, %136
  %138 = icmp ugt i64 %137, 3
  br i1 %138, label %139, label %144

139:                                              ; preds = %130
  %140 = shl i32 %.026.i.i22, %126
  %141 = tail call i32 @llvm.bswap.i32(i32 %140)
  store i32 %141, ptr %134, align 1, !tbaa !49
  %142 = load ptr, ptr %133, align 8, !tbaa !56
  %143 = getelementptr inbounds nuw i8, ptr %142, i64 4
  store ptr %143, ptr %133, align 8, !tbaa !56
  br label %put_bits.exit28

144:                                              ; preds = %130
  tail call void (ptr, i32, ptr, ...) @av_log(ptr noundef null, i32 noundef 16, ptr noundef nonnull @.str.2) #13
  br label %put_bits.exit28

put_bits.exit28:                                  ; preds = %139, %144, %128
  %.sink32 = phi i32 [ -1, %128 ], [ 31, %144 ], [ 31, %139 ]
  %.026.i.i26 = phi i32 [ %129, %128 ], [ 0, %144 ], [ 0, %139 ]
  %145 = add nsw i32 %126, %.sink32
  store i32 %.026.i.i26, ptr %14, align 8, !tbaa !58
  store i32 %145, ptr %23, align 4, !tbaa !57
  ret void
}